; Function Attrs: mustprogress nounwind uwtable
define void @_ZN9pymeshlab17FunctionParameterD2Ev(ptr nocapture noundef nonnull align 8 dereferenceable(16) %0) unnamed_addr #0 align 2 {
  store ptr getelementptr inbounds ({ [4 x ptr] }, ptr @_ZTVN9pymeshlab17FunctionParameterE, i64 0, i32 0, i64 2), ptr %0, align 8
  %2 = getelementptr inbounds i8, ptr %0, i64 8
  %3 = load ptr, ptr %2, align 8
  %4 = icmp eq ptr %3, null
  br i1 %4, label %9, label %5

5:                                                ; preds = %1
  %6 = load ptr, ptr %3, align 8
  %7 = getelementptr inbounds i8, ptr %6, i64 8
  %8 = load ptr, ptr %7, align 8
  tail call void %8(ptr noundef nonnull align 8 dereferenceable(56) %3) #15
  br label %9

9:                                                ; preds = %5, %1
  ret void
}